; Function Attrs: mustprogress uwtable
define internal void @_ZN4LuauL11emitWarningERNS_11LintContextENS_11LintWarning4CodeERKNS_8LocationEPKcz(ptr noundef nonnull align 8 dereferenceable(112) %0, i32 noundef %1, ptr nocapture noundef nonnull readonly align 4 dereferenceable(16) %2, ptr noundef %3, ...) unnamed_addr #1 personality ptr @__gxx_personality_v0 {
  %5 = alloca [1 x %struct.__va_list_tag], align 16
  %6 = alloca %"class.std::__cxx11::basic_string", align 8
  %7 = alloca %"struct.Luau::LintWarning", align 8
  %8 = getelementptr inbounds i8, ptr %0, i64 24
  %9 = load i64, ptr %8, align 8
  %10 = zext nneg i32 %1 to i64
  %11 = shl nuw i64 1, %10
  %12 = and i64 %9, %11
  %.not = icmp eq i64 %12, 0
  br i1 %.not, label %26, label %13

13:                                               ; preds = %4
  call void @llvm.va_start.p0(ptr nonnull %5)
  call void @_ZN4Luau7vformatB5cxx11EPKcP13__va_list_tag(ptr dead_on_unwind nonnull writable sret(%"class.std::__cxx11::basic_string") align 8 %6, ptr noundef %3, ptr noundef nonnull %5)
  call void @llvm.va_end.p0(ptr nonnull %5)
  store i32 %1, ptr %7, align 8
  %14 = getelementptr inbounds i8, ptr %7, i64 4
  call void @llvm.memcpy.p0.p0.i64(ptr noundef nonnull align 4 dereferenceable(16) %14, ptr noundef nonnull align 4 dereferenceable(16) %2, i64 16, i1 false)
  %15 = getelementptr inbounds i8, ptr %7, i64 24
  invoke void @_ZNSt7__cxx1112basic_stringIcSt11char_traitsIcESaIcEEC1ERKS4_(ptr noundef nonnull align 8 dereferenceable(32) %15, ptr noundef nonnull align 8 dereferenceable(32) %6)
          to label %16 unwind label %27

16:                                               ; preds = %13
  %17 = getelementptr inbounds i8, ptr %0, i64 8
  %18 = load ptr, ptr %17, align 8
  %19 = getelementptr inbounds i8, ptr %0, i64 16
  %20 = load ptr, ptr %19, align 8
  %.not.i = icmp eq ptr %18, %20
  br i1 %.not.i, label %25, label %21

21:                                               ; preds = %16
  call void @llvm.memcpy.p0.p0.i64(ptr noundef nonnull align 8 dereferenceable(20) %18, ptr noundef nonnull align 8 dereferenceable(20) %7, i64 20, i1 false)
  %22 = getelementptr inbounds i8, ptr %18, i64 24
  invoke void @_ZNSt7__cxx1112basic_stringIcSt11char_traitsIcESaIcEEC1ERKS4_(ptr noundef nonnull align 8 dereferenceable(32) %22, ptr noundef nonnull align 8 dereferenceable(32) %15)
          to label %.noexc unwind label %29

.noexc:                                           ; preds = %21
  %23 = load ptr, ptr %17, align 8
  %24 = getelementptr inbounds i8, ptr %23, i64 56
  store ptr %24, ptr %17, align 8
  br label %_ZNSt6vectorIN4Luau11LintWarningESaIS1_EE9push_backERKS1_.exit

25:                                               ; preds = %16
  invoke void @_ZNSt6vectorIN4Luau11LintWarningESaIS1_EE17_M_realloc_insertIJRKS1_EEEvN9__gnu_cxx17__normal_iteratorIPS1_S3_EEDpOT_(ptr noundef nonnull align 8 dereferenceable(24) %0, ptr %18, ptr noundef nonnull align 8 dereferenceable(56) %7)
          to label %_ZNSt6vectorIN4Luau11LintWarningESaIS1_EE9push_backERKS1_.exit unwind label %29

_ZNSt6vectorIN4Luau11LintWarningESaIS1_EE9push_backERKS1_.exit: ; preds = %.noexc, %25
  call void @_ZNSt7__cxx1112basic_stringIcSt11char_traitsIcESaIcEED1Ev(ptr noundef nonnull align 8 dereferenceable(32) %15) #19
  call void @_ZNSt7__cxx1112basic_stringIcSt11char_traitsIcESaIcEED1Ev(ptr noundef nonnull align 8 dereferenceable(32) %6) #19
  br label %26

26:                                               ; preds = %4, %_ZNSt6vectorIN4Luau11LintWarningESaIS1_EE9push_backERKS1_.exit
  ret void

27:                                               ; preds = %13
  %28 = landingpad { ptr, i32 }
          cleanup
  br label %31

29:                                               ; preds = %25, %21
  %30 = landingpad { ptr, i32 }
          cleanup
  call void @_ZNSt7__cxx1112basic_stringIcSt11char_traitsIcESaIcEED1Ev(ptr noundef nonnull align 8 dereferenceable(32) %15) #19
  br label %31

31:                                               ; preds = %29, %27
  %.pn = phi { ptr, i32 } [ %30, %29 ], [ %28, %27 ]
  call void @_ZNSt7__cxx1112basic_stringIcSt11char_traitsIcESaIcEED1Ev(ptr noundef nonnull align 8 dereferenceable(32) %6) #19
  resume { ptr, i32 } %.pn
}